; Function Attrs: mustprogress nounwind uwtable
define hidden noundef ptr @_ZN8CallNode11result_castEv(ptr noundef nonnull align 8 dereferenceable(128) %0) local_unnamed_addr #2 align 2 {
  %2 = tail call noundef ptr @_ZNK9MultiNode16proj_out_or_nullEj(ptr noundef nonnull align 8 dereferenceable(52) %0, i32 noundef 5) #15
  %3 = icmp eq ptr %2, null
  br i1 %3, label %.loopexit, label %4

4:                                                ; preds = %1
  %5 = getelementptr inbounds i8, ptr %2, i64 16
  %6 = load ptr, ptr %5, align 8
  %7 = getelementptr inbounds i8, ptr %2, i64 32
  %8 = load i32, ptr %7, align 8
  %9 = zext i32 %8 to i64
  %10 = getelementptr inbounds ptr, ptr %6, i64 %9
  %.not26 = icmp eq i32 %8, 0
  br i1 %.not26, label %.loopexit, label %.lr.ph

.lr.ph:                                           ; preds = %4, %26
  %.01521 = phi ptr [ %27, %26 ], [ %6, %4 ]
  %.01620 = phi ptr [ %.1, %26 ], [ null, %4 ]
  %11 = load ptr, ptr %.01521, align 8
  %12 = getelementptr inbounds i8, ptr %11, i64 44
  %13 = load i32, ptr %12, align 4
  %14 = and i32 %13, 127
  %15 = icmp eq i32 %14, 84
  br i1 %15, label %16, label %17

16:                                               ; preds = %.lr.ph
  %.not18 = icmp eq ptr %.01620, null
  br i1 %.not18, label %26, label %.loopexit

17:                                               ; preds = %.lr.ph
  %18 = and i32 %13, 63
  %19 = icmp eq i32 %18, 49
  %20 = and i32 %13, 1023
  %21 = icmp eq i32 %20, 512
  %or.cond = or i1 %19, %21
  br i1 %or.cond, label %26, label %22

22:                                               ; preds = %17
  %23 = load ptr, ptr %11, align 8
  %24 = load ptr, ptr %23, align 8
  %25 = tail call noundef i32 %24(ptr noundef nonnull align 8 dereferenceable(52) %11) #15
  %.not = icmp eq i32 %25, 222
  br i1 %.not, label %26, label %.loopexit

26:                                               ; preds = %16, %22, %17
  %.1 = phi ptr [ %.01620, %17 ], [ %.01620, %22 ], [ %11, %16 ]
  %27 = getelementptr inbounds i8, ptr %.01521, i64 8
  %28 = icmp ult ptr %27, %10
  br i1 %28, label %.lr.ph, label %.loopexit, !llvm.loop !18

.loopexit:                                        ; preds = %16, %22, %26, %4, %1
  %.0 = phi ptr [ null, %1 ], [ null, %4 ], [ %0, %16 ], [ %0, %22 ], [ %.1, %26 ]
  ret ptr %.0
}